target datalayout = "e-m:e-p270:32:32-p271:32:32-p272:64:64-i64:64-i128:128-f80:128-n8:16:32:64-S128"
target triple = "x86_64-unknown-linux-gnu"

%"class.Imath_3_2::Vec2.8" = type { float, float }
%"class.std::__cxx11::basic_string" = type { %"struct.std::__cxx11::basic_string<char>::_Alloc_hider", i64, %union.anon }
%"struct.std::__cxx11::basic_string<char>::_Alloc_hider" = type { ptr }
%union.anon = type { i64, [8 x i8] }
%"class.Imf_3_2::RgbaInputFile" = type { ptr, ptr, ptr, ptr, %"class.std::__cxx11::basic_string" }

; Function Attrs: mustprogress nounwind uwtable
define linkonce_odr hidden void @_ZN9Imath_3_24Vec2IfEC2ERKS1_(ptr noundef nonnull align 4 dereferenceable(8) %this, ptr noundef nonnull align 4 dereferenceable(8) %v) unnamed_addr #5 comdat align 2 {
entry:
  %this.addr = alloca ptr, align 8
  %v.addr = alloca ptr, align 8
  store ptr %this, ptr %this.addr, align 8
  store ptr %v, ptr %v.addr, align 8
  %this1 = load ptr, ptr %this.addr, align 8
  %x = getelementptr inbounds %"class.Imath_3_2::Vec2.8", ptr %this1, i32 0, i32 0
  %0 = load ptr, ptr %v.addr, align 8
  %x2 = getelementptr inbounds %"class.Imath_3_2::Vec2.8", ptr %0, i32 0, i32 0
  %1 = load float, ptr %x2, align 4
  store float %1, ptr %x, align 4
  %y = getelementptr inbounds %"class.Imath_3_2::Vec2.8", ptr %this1, i32 0, i32 1
  %2 = load ptr, ptr %v.addr, align 8
  %y3 = getelementptr inbounds %"class.Imath_3_2::Vec2.8", ptr %2, i32 0, i32 1
  %3 = load float, ptr %y3, align 4
  store float %3, ptr %y, align 4
  ret void
}

; Function Attrs: mustprogress uwtable
define void @_ZNK7Imf_3_213RgbaInputFile18screenWindowCenterEv(ptr noalias sret(%"class.Imath_3_2::Vec2.8") align 4 %agg.result, ptr noundef nonnull align 8 dereferenceable(64) %this) #4 align 2 {
entry:
  %result.ptr = alloca ptr, align 8
  %this.addr = alloca ptr, align 8
  store ptr %agg.result, ptr %result.ptr, align 8
  store ptr %this, ptr %this.addr, align 8
  %this1 = load ptr, ptr %this.addr, align 8
  %_inputPart = getelementptr inbounds %"class.Imf_3_2::RgbaInputFile", ptr %this1, i32 0, i32 2
  %0 = load ptr, ptr %_inputPart, align 8
  %call = call noundef nonnull align 8 dereferenceable(49) ptr @_ZNK7Imf_3_29InputPart6headerEv(ptr noundef nonnull align 8 dereferenceable(8) %0)
  %call2 = call noundef nonnull align 4 dereferenceable(8) ptr @_ZNK7Imf_3_26Header18screenWindowCenterEv(ptr noundef nonnull align 8 dereferenceable(49) %call)
  call void @_ZN9Imath_3_24Vec2IfEC2ERKS1_(ptr noundef nonnull align 4 dereferenceable(8) %agg.result, ptr noundef nonnull align 4 dereferenceable(8) %call2) #3
  ret void
}