; Function Attrs: mustprogress uwtable
define void @_ZNK7Imf_3_213RgbaInputFile18screenWindowCenterEv(ptr noalias nocapture writeonly sret(%"class.Imath_3_2::Vec2.8") align 4 %agg.result, ptr nocapture noundef nonnull readonly align 8 dereferenceable(64) %this) local_unnamed_addr #3 align 2 {
entry:
  %_inputPart = getelementptr inbounds i8, ptr %this, i64 16
  %0 = load ptr, ptr %_inputPart, align 8
  %call = tail call noundef nonnull align 8 dereferenceable(49) ptr @_ZNK7Imf_3_29InputPart6headerEv(ptr noundef nonnull align 8 dereferenceable(8) %0)
  %call2 = tail call noundef nonnull align 4 dereferenceable(8) ptr @_ZNK7Imf_3_26Header18screenWindowCenterEv(ptr noundef nonnull align 8 dereferenceable(49) %call)
  %1 = load <2 x float>, ptr %call2, align 4
  store <2 x float> %1, ptr %agg.result, align 4
  ret void
}